; ModuleID = '57/2773.c'
source_filename = "57/2773.c"
target datalayout = "e-m:e-p270:32:32-p271:32:32-p272:64:64-i64:64-f80:128-n8:16:32:64-S128"
target triple = "x86_64-pc-linux-gnu"

@.str = private unnamed_addr constant [3 x i8] c"%d\00", align 1
@.str.1 = private unnamed_addr constant [4 x i8] c"%s\0A\00", align 1

; Function Attrs: noinline nounwind uwtable
define dso_local i32 @main() #0 {
  %1 = alloca i32, align 4
  %2 = alloca i32, align 4
  %3 = alloca i32, align 4
  %4 = alloca i32, align 4
  %5 = alloca i32, align 4
  %6 = alloca [33 x i8], align 16
  store i32 0, i32* %1, align 4
  %7 = call i32 (i8*, ...) @__isoc99_scanf(i8* getelementptr inbounds ([3 x i8], [3 x i8]* @.str, i64 0, i64 0), i32* %4)
  store i32 0, i32* %2, align 4
  br label %8

8:                                                ; preds = %97, %0
  %9 = load i32, i32* %2, align 4
  %10 = load i32, i32* %4, align 4
  %11 = icmp sle i32 %9, %10
  br i1 %11, label %12, label %100

12:                                               ; preds = %8
  %13 = getelementptr inbounds [33 x i8], [33 x i8]* %6, i64 0, i64 0
  %14 = call i32 (i8*, ...) bitcast (i32 (...)* @gets to i32 (i8*, ...)*)(i8* %13)
  %15 = getelementptr inbounds [33 x i8], [33 x i8]* %6, i64 0, i64 0
  %16 = call i64 @strlen(i8* %15) #3
  %17 = trunc i64 %16 to i32
  store i32 %17, i32* %5, align 4
  %18 = load i32, i32* %5, align 4
  %19 = sub nsw i32 %18, 1
  %20 = sext i32 %19 to i64
  %21 = getelementptr inbounds [33 x i8], [33 x i8]* %6, i64 0, i64 %20
  %22 = load i8, i8* %21, align 1
  %23 = sext i8 %22 to i32
  %24 = icmp eq i32 %23, 114
  br i1 %24, label %25, label %39

25:                                               ; preds = %12
  %26 = load i32, i32* %5, align 4
  %27 = sub nsw i32 %26, 2
  %28 = sext i32 %27 to i64
  %29 = getelementptr inbounds [33 x i8], [33 x i8]* %6, i64 0, i64 %28
  %30 = load i8, i8* %29, align 1
  %31 = sext i8 %30 to i32
  %32 = icmp eq i32 %31, 101
  br i1 %32, label %33, label %38

33:                                               ; preds = %25
  %34 = load i32, i32* %5, align 4
  %35 = sub nsw i32 %34, 2
  %36 = sext i32 %35 to i64
  %37 = getelementptr inbounds [33 x i8], [33 x i8]* %6, i64 0, i64 %36
  store i8 0, i8* %37, align 1
  br label %38

38:                                               ; preds = %33, %25
  br label %94

39:                                               ; preds = %12
  %40 = load i32, i32* %5, align 4
  %41 = sub nsw i32 %40, 1
  %42 = sext i32 %41 to i64
  %43 = getelementptr inbounds [33 x i8], [33 x i8]* %6, i64 0, i64 %42
  %44 = load i8, i8* %43, align 1
  %45 = sext i8 %44 to i32
  %46 = icmp eq i32 %45, 103
  br i1 %46, label %47, label %70

47:                                               ; preds = %39
  %48 = load i32, i32* %5, align 4
  %49 = sub nsw i32 %48, 2
  %50 = sext i32 %49 to i64
  %51 = getelementptr inbounds [33 x i8], [33 x i8]* %6, i64 0, i64 %50
  %52 = load i8, i8* %51, align 1
  %53 = sext i8 %52 to i32
  %54 = icmp eq i32 %53, 110
  br i1 %54, label %55, label %69

55:                                               ; preds = %47
  %56 = load i32, i32* %5, align 4
  %57 = sub nsw i32 %56, 3
  %58 = sext i32 %57 to i64
  %59 = getelementptr inbounds [33 x i8], [33 x i8]* %6, i64 0, i64 %58
  %60 = load i8, i8* %59, align 1
  %61 = sext i8 %60 to i32
  %62 = icmp eq i32 %61, 105
  br i1 %62, label %63, label %68

63:                                               ; preds = %55
  %64 = load i32, i32* %5, align 4
  %65 = sub nsw i32 %64, 3
  %66 = sext i32 %65 to i64
  %67 = getelementptr inbounds [33 x i8], [33 x i8]* %6, i64 0, i64 %66
  store i8 0, i8* %67, align 1
  br label %68

68:                                               ; preds = %63, %55
  br label %69

69:                                               ; preds = %68, %47
  br label %93

70:                                               ; preds = %39
  %71 = load i32, i32* %5, align 4
  %72 = sub nsw i32 %71, 1
  %73 = sext i32 %72 to i64
  %74 = getelementptr inbounds [33 x i8], [33 x i8]* %6, i64 0, i64 %73
  %75 = load i8, i8* %74, align 1
  %76 = sext i8 %75 to i32
  %77 = icmp eq i32 %76, 121
  br i1 %77, label %78, label %92

78:                                               ; preds = %70
  %79 = load i32, i32* %5, align 4
  %80 = sub nsw i32 %79, 2
  %81 = sext i32 %80 to i64
  %82 = getelementptr inbounds [33 x i8], [33 x i8]* %6, i64 0, i64 %81
  %83 = load i8, i8* %82, align 1
  %84 = sext i8 %83 to i32
  %85 = icmp eq i32 %84, 108
  br i1 %85, label %86, label %91

86:                                               ; preds = %78
  %87 = load i32, i32* %5, align 4
  %88 = sub nsw i32 %87, 2
  %89 = sext i32 %88 to i64
  %90 = getelementptr inbounds [33 x i8], [33 x i8]* %6, i64 0, i64 %89
  store i8 0, i8* %90, align 1
  br label %91

91:                                               ; preds = %86, %78
  br label %92

92:                                               ; preds = %91, %70
  br label %93

93:                                               ; preds = %92, %69
  br label %94

94:                                               ; preds = %93, %38
  %95 = getelementptr inbounds [33 x i8], [33 x i8]* %6, i64 0, i64 0
  %96 = call i32 (i8*, ...) @printf(i8* getelementptr inbounds ([4 x i8], [4 x i8]* @.str.1, i64 0, i64 0), i8* %95)
  br label %97

97:                                               ; preds = %94
  %98 = load i32, i32* %2, align 4
  %99 = add nsw i32 %98, 1
  store i32 %99, i32* %2, align 4
  br label %8

100:                                              ; preds = %8
  ret i32 0
}

declare dso_local i32 @__isoc99_scanf(i8*, ...) #1

declare dso_local i32 @gets(...) #1

; Function Attrs: nounwind readonly
declare dso_local i64 @strlen(i8*) #2

declare dso_local i32 @printf(i8*, ...) #1


!llvm.module.flags = !{!0}
!llvm.ident = !{!1}

!0 = !{i32 1, !"wchar_size", i32 4}
!1 = !{!"clang version 10.0.0-4ubuntu1 "}
